   1              		.cpu cortex-m1
   2              		.eabi_attribute 20, 1
   3              		.eabi_attribute 21, 1
   4              		.eabi_attribute 23, 3
   5              		.eabi_attribute 24, 1
   6              		.eabi_attribute 25, 1
   7              		.eabi_attribute 26, 1
   8              		.eabi_attribute 30, 6
   9              		.eabi_attribute 34, 0
  10              		.eabi_attribute 18, 4
  11              		.file	"xil_assert.c"
  12              		.text
  13              		.comm	Xil_AssertStatus,4,4
  14              		.global	Xil_AssertWait
  15              		.section	.data.Xil_AssertWait,"aw"
  16              		.align	2
  19              	Xil_AssertWait:
  20 0000 01000000 		.word	1
  21              		.section	.bss.Xil_AssertCallbackRoutine,"aw",%nobits
  22              		.align	2
  25              	Xil_AssertCallbackRoutine:
  26 0000 00000000 		.space	4
  27              		.section	.text.Xil_Assert,"ax",%progbits
  28              		.align	1
  29              		.global	Xil_Assert
  30              		.arch armv6s-m
  31              		.syntax unified
  32              		.code	16
  33              		.thumb_func
  34              		.fpu softvfp
  36              	Xil_Assert:
  37              		@ args = 0, pretend = 0, frame = 8
  38              		@ frame_needed = 1, uses_anonymous_args = 0
  39 0000 80B5     		push	{r7, lr}
  40 0002 82B0     		sub	sp, sp, #8
  41 0004 00AF     		add	r7, sp, #0
  42 0006 7860     		str	r0, [r7, #4]
  43 0008 3960     		str	r1, [r7]
  44 000a 0A4B     		ldr	r3, .L5
  45 000c 1B68     		ldr	r3, [r3]
  46 000e 002B     		cmp	r3, #0
  47 0010 05D0     		beq	.L4
  48 0012 084B     		ldr	r3, .L5
  49 0014 1B68     		ldr	r3, [r3]
  50 0016 3968     		ldr	r1, [r7]
  51 0018 7A68     		ldr	r2, [r7, #4]
  52 001a 1000     		movs	r0, r2
  53 001c 9847     		blx	r3
  54              	.L4:
  55 001e C046     		nop
  56              	.L3:
  57 0020 054B     		ldr	r3, .L5+4
  58 0022 1B68     		ldr	r3, [r3]
  59 0024 002B     		cmp	r3, #0
  60 0026 FBD1     		bne	.L3
  61 0028 C046     		nop
  62 002a C046     		nop
  63 002c BD46     		mov	sp, r7
  64 002e 02B0     		add	sp, sp, #8
  65              		@ sp needed
  66 0030 80BD     		pop	{r7, pc}
  67              	.L6:
  68 0032 C046     		.align	2
  69              	.L5:
  70 0034 00000000 		.word	Xil_AssertCallbackRoutine
  71 0038 00000000 		.word	Xil_AssertWait
  73              		.section	.text.Xil_AssertSetCallback,"ax",%progbits
  74              		.align	1
  75              		.global	Xil_AssertSetCallback
  76              		.syntax unified
  77              		.code	16
  78              		.thumb_func
  79              		.fpu softvfp
  81              	Xil_AssertSetCallback:
  82              		@ args = 0, pretend = 0, frame = 8
  83              		@ frame_needed = 1, uses_anonymous_args = 0
  84 0000 80B5     		push	{r7, lr}
  85 0002 82B0     		sub	sp, sp, #8
  86 0004 00AF     		add	r7, sp, #0
  87 0006 7860     		str	r0, [r7, #4]
  88 0008 034B     		ldr	r3, .L8
  89 000a 7A68     		ldr	r2, [r7, #4]
  90 000c 1A60     		str	r2, [r3]
  91 000e C046     		nop
  92 0010 BD46     		mov	sp, r7
  93 0012 02B0     		add	sp, sp, #8
  94              		@ sp needed
  95 0014 80BD     		pop	{r7, pc}
  96              	.L9:
  97 0016 C046     		.align	2
  98              	.L8:
  99 0018 00000000 		.word	Xil_AssertCallbackRoutine
 101              		.section	.text.XNullHandler,"ax",%progbits
 102              		.align	1
 103              		.global	XNullHandler
 104              		.syntax unified
 105              		.code	16
 106              		.thumb_func
 107              		.fpu softvfp
 109              	XNullHandler:
 110              		@ args = 0, pretend = 0, frame = 8
 111              		@ frame_needed = 1, uses_anonymous_args = 0
 112 0000 80B5     		push	{r7, lr}
 113 0002 82B0     		sub	sp, sp, #8
 114 0004 00AF     		add	r7, sp, #0
 115 0006 7860     		str	r0, [r7, #4]
 116 0008 C046     		nop
 117 000a BD46     		mov	sp, r7
 118 000c 02B0     		add	sp, sp, #8
 119              		@ sp needed
 120 000e 80BD     		pop	{r7, pc}
 122              		.ident	"GCC: (GNU Tools for Arm Embedded Processors 9-2019-q4-major) 9.2.1 20191025 (release) [ARM